target datalayout = "e-m:e-p270:32:32-p271:32:32-p272:64:64-i64:64-i128:128-f80:128-n8:16:32:64-S128"
target triple = "x86_64-pc-linux-gnu"

@.str = private unnamed_addr constant [24 x i8] c"slurm_protocol_socket.c\00", align 1
@__func__.slurm_msg_recvfrom_timeout = private unnamed_addr constant [27 x i8] c"slurm_msg_recvfrom_timeout\00", align 1

; Function Attrs: inlinehint nounwind uwtable
define internal i32 @__bswap_32(i32 noundef %0) #2 {
  %2 = alloca i32, align 4
  store i32 %0, ptr %2, align 4
  %3 = load i32, ptr %2, align 4
  %4 = and i32 %3, -16777216
  %5 = lshr i32 %4, 24
  %6 = load i32, ptr %2, align 4
  %7 = and i32 %6, 16711680
  %8 = lshr i32 %7, 8
  %9 = or i32 %5, %8
  %10 = load i32, ptr %2, align 4
  %11 = and i32 %10, 65280
  %12 = shl i32 %11, 8
  %13 = or i32 %9, %12
  %14 = load i32, ptr %2, align 4
  %15 = and i32 %14, 255
  %16 = shl i32 %15, 24
  %17 = or i32 %13, %16
  ret i32 %17
}

; Function Attrs: nounwind uwtable
define dso_local i64 @slurm_msg_recvfrom_timeout(i32 noundef %0, ptr noundef %1, ptr noundef %2, i32 noundef %3) #0 {
  %5 = alloca i64, align 8
  %6 = alloca i32, align 4
  %7 = alloca ptr, align 8
  %8 = alloca ptr, align 8
  %9 = alloca i32, align 4
  %10 = alloca i64, align 8
  %11 = alloca i32, align 4
  %12 = alloca i32, align 4
  store i32 %0, ptr %6, align 4
  store ptr %1, ptr %7, align 8
  store ptr %2, ptr %8, align 8
  store i32 %3, ptr %9, align 4
  call void @llvm.lifetime.start.p0(i64 8, ptr %10) #9
  call void @llvm.lifetime.start.p0(i64 4, ptr %11) #9
  %13 = load i32, ptr %6, align 4
  %14 = load i32, ptr %9, align 4
  %15 = call i32 @slurm_recv_timeout(i32 noundef %13, ptr noundef %11, i64 noundef 4, i32 noundef %14)
  %16 = sext i32 %15 to i64
  store i64 %16, ptr %10, align 8
  %17 = load i64, ptr %10, align 8
  %18 = icmp slt i64 %17, 4
  br i1 %18, label %19, label %20

19:                                               ; preds = %4
  store i64 -1, ptr %5, align 8
  store i32 1, ptr %12, align 4
  br label %60

20:                                               ; preds = %4
  %21 = load i32, ptr %11, align 4
  %22 = call i32 @__bswap_32(i32 noundef %21)
  store i32 %22, ptr %11, align 4
  %23 = load i32, ptr %11, align 4
  %24 = icmp ugt i32 %23, 1073741824
  br i1 %24, label %25, label %30

25:                                               ; preds = %20
  br label %26

26:                                               ; preds = %25
  %27 = call ptr @__errno_location() #10
  store i32 1008, ptr %27, align 4
  store i64 -1, ptr %5, align 8
  store i32 1, ptr %12, align 4
  br label %60

28:                                               ; No predecessors!
  br label %29

29:                                               ; preds = %28
  br label %30

30:                                               ; preds = %29, %20
  %31 = load i32, ptr %11, align 4
  %32 = zext i32 %31 to i64
  %33 = call ptr @slurm_xcalloc(i64 noundef 1, i64 noundef %32, i1 noundef zeroext true, i1 noundef zeroext true, ptr noundef @.str, i32 noundef 136, ptr noundef @__func__.slurm_msg_recvfrom_timeout)
  %34 = load ptr, ptr %7, align 8
  store ptr %33, ptr %34, align 8
  %35 = icmp ne ptr %33, null
  br i1 %35, label %41, label %36

36:                                               ; preds = %30
  br label %37

37:                                               ; preds = %36
  %38 = call ptr @__errno_location() #10
  store i32 12, ptr %38, align 4
  store i64 -1, ptr %5, align 8
  store i32 1, ptr %12, align 4
  br label %60

39:                                               ; No predecessors!
  br label %40

40:                                               ; preds = %39
  br label %41

41:                                               ; preds = %40, %30
  %42 = load i32, ptr %6, align 4
  %43 = load ptr, ptr %7, align 8
  %44 = load ptr, ptr %43, align 8
  %45 = load i32, ptr %11, align 4
  %46 = zext i32 %45 to i64
  %47 = load i32, ptr %9, align 4
  %48 = call i32 @slurm_recv_timeout(i32 noundef %42, ptr noundef %44, i64 noundef %46, i32 noundef %47)
  %49 = load i32, ptr %11, align 4
  %50 = icmp ne i32 %48, %49
  br i1 %50, label %51, label %54

51:                                               ; preds = %41
  %52 = load ptr, ptr %7, align 8
  call void @slurm_xfree(ptr noundef %52)
  %53 = load ptr, ptr %7, align 8
  store ptr null, ptr %53, align 8
  store i64 -1, ptr %5, align 8
  store i32 1, ptr %12, align 4
  br label %60

54:                                               ; preds = %41
  %55 = load i32, ptr %11, align 4
  %56 = zext i32 %55 to i64
  %57 = load ptr, ptr %8, align 8
  store i64 %56, ptr %57, align 8
  %58 = load i32, ptr %11, align 4
  %59 = zext i32 %58 to i64
  store i64 %59, ptr %5, align 8
  store i32 1, ptr %12, align 4
  br label %60

60:                                               ; preds = %54, %51, %37, %26, %19
  call void @llvm.lifetime.end.p0(i64 4, ptr %11) #9
  call void @llvm.lifetime.end.p0(i64 8, ptr %10) #9
  %61 = load i64, ptr %5, align 8
  ret i64 %61
}