; Function Attrs: nounwind uwtable
define dso_local range(i64 -1, 4294967296) i64 @slurm_msg_recvfrom_timeout(i32 noundef %0, ptr noundef %1, ptr noundef writeonly captures(none) %2, i32 noundef %3) local_unnamed_addr #0 {
  %5 = alloca i32, align 4
  call void @llvm.lifetime.start.p0(i64 4, ptr nonnull %5) #11
  %6 = call i32 @slurm_recv_timeout(i32 noundef %0, ptr noundef nonnull %5, i64 noundef 4, i32 noundef %3)
  %7 = icmp slt i32 %6, 4
  br i1 %7, label %27, label %8

8:                                                ; preds = %4
  %9 = load i32, ptr %5, align 4
  %10 = call noundef i32 @llvm.bswap.i32(i32 %9)
  store i32 %10, ptr %5, align 4
  %11 = icmp ugt i32 %10, 1073741824
  br i1 %11, label %12, label %14

12:                                               ; preds = %8
  %13 = tail call ptr @__errno_location() #12
  store i32 1008, ptr %13, align 4
  br label %27

14:                                               ; preds = %8
  %15 = zext nneg i32 %10 to i64
  %16 = call ptr @slurm_xcalloc(i64 noundef 1, i64 noundef %15, i1 noundef zeroext true, i1 noundef zeroext true, ptr noundef nonnull @.str, i32 noundef 136, ptr noundef nonnull @__func__.slurm_msg_recvfrom_timeout) #11
  store ptr %16, ptr %1, align 8
  %.not = icmp eq ptr %16, null
  br i1 %.not, label %17, label %19

17:                                               ; preds = %14
  %18 = tail call ptr @__errno_location() #12
  store i32 12, ptr %18, align 4
  br label %27

19:                                               ; preds = %14
  %20 = load i32, ptr %5, align 4
  %21 = zext i32 %20 to i64
  %22 = call i32 @slurm_recv_timeout(i32 noundef %0, ptr noundef nonnull %16, i64 noundef %21, i32 noundef %3)
  %23 = load i32, ptr %5, align 4
  %.not13 = icmp eq i32 %22, %23
  br i1 %.not13, label %25, label %24

24:                                               ; preds = %19
  call void @slurm_xfree(ptr noundef nonnull %1) #11
  store ptr null, ptr %1, align 8
  br label %27

25:                                               ; preds = %19
  %26 = zext i32 %22 to i64
  store i64 %26, ptr %2, align 8
  br label %27

27:                                               ; preds = %4, %25, %24, %17, %12
  %.0 = phi i64 [ -1, %12 ], [ -1, %24 ], [ %26, %25 ], [ -1, %17 ], [ -1, %4 ]
  call void @llvm.lifetime.end.p0(i64 4, ptr nonnull %5) #11
  ret i64 %.0
}